; Function Attrs: mustprogress nofree norecurse nosync nounwind willreturn memory(read, inaccessiblemem: none) uwtable
define dso_local ptr @llvm_debug_current_scope(ptr nocapture noundef readonly %0) local_unnamed_addr #2 {
  %2 = getelementptr inbounds i8, ptr %0, i64 352
  %3 = load ptr, ptr %2, align 8
  %.not = icmp eq ptr %3, null
  br i1 %.not, label %.critedge, label %4

4:                                                ; preds = %1
  %5 = getelementptr inbounds i8, ptr %3, i64 -8
  %6 = load i32, ptr %5, align 4
  %7 = icmp eq i32 %6, 0
  br i1 %7, label %.critedge, label %8

8:                                                ; preds = %4
  %9 = add i32 %6, -1
  %10 = zext i32 %9 to i64
  %11 = getelementptr inbounds ptr, ptr %3, i64 %10
  br label %13

.critedge:                                        ; preds = %1, %4
  %12 = getelementptr inbounds i8, ptr %0, i64 336
  br label %13

13:                                               ; preds = %8, %.critedge
  %.016.in = phi ptr [ %12, %.critedge ], [ %11, %8 ]
  %.016 = load ptr, ptr %.016.in, align 8
  ret ptr %.016
}